target datalayout = "e-m:e-p270:32:32-p271:32:32-p272:64:64-i64:64-i128:128-f80:128-n8:16:32:64-S128"
target triple = "x86_64-unknown-linux-gnu"

%class.anon = type { ptr, ptr, ptr, ptr, ptr, ptr, ptr }

; Function Attrs: mustprogress uwtable
define internal noundef zeroext i1 @"_ZZN6google8protobuf4util18MessageDifferencer25MatchRepeatedFieldIndicesERKNS0_7MessageES5_iPKNS0_15FieldDescriptorEPKNS2_16MapKeyComparatorERKSt6vectorINS2_13SpecificFieldESaISD_EEPSC_IiSaIiEESK_ENK3$_0clEii"(ptr noundef nonnull align 8 dereferenceable(56) %this, i32 noundef %i1, i32 noundef %i2) #4 align 2 {
entry:
  %this.addr = alloca ptr, align 8
  %i1.addr = alloca i32, align 4
  %i2.addr = alloca i32, align 4
  store ptr %this, ptr %this.addr, align 8
  store i32 %i1, ptr %i1.addr, align 4
  store i32 %i2, ptr %i2.addr, align 4
  %this1 = load ptr, ptr %this.addr, align 8
  %0 = getelementptr inbounds %class.anon, ptr %this1, i32 0, i32 0
  %1 = load ptr, ptr %0, align 8
  %2 = getelementptr inbounds %class.anon, ptr %this1, i32 0, i32 1
  %3 = load ptr, ptr %2, align 8
  %4 = load ptr, ptr %3, align 8
  %5 = getelementptr inbounds %class.anon, ptr %this1, i32 0, i32 2
  %6 = load ptr, ptr %5, align 8
  %7 = load ptr, ptr %6, align 8
  %8 = getelementptr inbounds %class.anon, ptr %this1, i32 0, i32 3
  %9 = load ptr, ptr %8, align 8
  %10 = getelementptr inbounds %class.anon, ptr %this1, i32 0, i32 4
  %11 = load ptr, ptr %10, align 8
  %12 = getelementptr inbounds %class.anon, ptr %this1, i32 0, i32 5
  %13 = load ptr, ptr %12, align 8
  %14 = load i32, ptr %13, align 4
  %15 = getelementptr inbounds %class.anon, ptr %this1, i32 0, i32 6
  %16 = load ptr, ptr %15, align 8
  %17 = load i32, ptr %i1.addr, align 4
  %18 = load i32, ptr %i2.addr, align 4
  %call = call noundef zeroext i1 @_ZN6google8protobuf4util18MessageDifferencer7IsMatchEPKNS0_15FieldDescriptorEPKNS2_16MapKeyComparatorEPKNS0_7MessageESB_iRKSt6vectorINS2_13SpecificFieldESaISD_EEPNS2_8ReporterEii(ptr noundef nonnull align 8 dereferenceable(432) %1, ptr noundef %4, ptr noundef %7, ptr noundef %9, ptr noundef %11, i32 noundef %14, ptr noundef nonnull align 8 dereferenceable(24) %16, ptr noundef null, i32 noundef %17, i32 noundef %18)
  ret i1 %call
}

; Function Attrs: mustprogress nounwind uwtable
define linkonce_odr hidden noundef ptr @_ZNKSt9_Any_data9_M_accessEv(ptr noundef nonnull align 8 dereferenceable(16) %this) #5 comdat align 2 {
entry:
  %this.addr = alloca ptr, align 8
  store ptr %this, ptr %this.addr, align 8
  %this1 = load ptr, ptr %this.addr, align 8
  %arrayidx = getelementptr inbounds [16 x i8], ptr %this1, i64 0, i64 0
  ret ptr %arrayidx
}

; Function Attrs: mustprogress uwtable
define internal noundef zeroext i1 @"_ZSt13__invoke_implIbRZN6google8protobuf4util18MessageDifferencer25MatchRepeatedFieldIndicesERKNS1_7MessageES6_iPKNS1_15FieldDescriptorEPKNS3_16MapKeyComparatorERKSt6vectorINS3_13SpecificFieldESaISE_EEPSD_IiSaIiEESL_E3$_0JiiEET_St14__invoke_otherOT0_DpOT1_"(ptr noundef nonnull align 8 dereferenceable(56) %__f, ptr noundef nonnull align 4 dereferenceable(4) %__args, ptr noundef nonnull align 4 dereferenceable(4) %__args1) #4 {
entry:
  %__f.addr = alloca ptr, align 8
  %__args.addr = alloca ptr, align 8
  %__args.addr2 = alloca ptr, align 8
  store ptr %__f, ptr %__f.addr, align 8
  store ptr %__args, ptr %__args.addr, align 8
  store ptr %__args1, ptr %__args.addr2, align 8
  %0 = load ptr, ptr %__f.addr, align 8
  %1 = load ptr, ptr %__args.addr, align 8
  %2 = load i32, ptr %1, align 4
  %3 = load ptr, ptr %__args.addr2, align 8
  %4 = load i32, ptr %3, align 4
  %call = call noundef zeroext i1 @"_ZZN6google8protobuf4util18MessageDifferencer25MatchRepeatedFieldIndicesERKNS0_7MessageES5_iPKNS0_15FieldDescriptorEPKNS2_16MapKeyComparatorERKSt6vectorINS2_13SpecificFieldESaISD_EEPSC_IiSaIiEESK_ENK3$_0clEii"(ptr noundef nonnull align 8 dereferenceable(56) %0, i32 noundef %2, i32 noundef %4)
  ret i1 %call
}

; Function Attrs: mustprogress nounwind uwtable
define internal noundef nonnull align 8 dereferenceable(8) ptr @"_ZNKSt9_Any_data9_M_accessIPZN6google8protobuf4util18MessageDifferencer25MatchRepeatedFieldIndicesERKNS2_7MessageES7_iPKNS2_15FieldDescriptorEPKNS4_16MapKeyComparatorERKSt6vectorINS4_13SpecificFieldESaISF_EEPSE_IiSaIiEESM_E3$_0EERKT_v"(ptr noundef nonnull align 8 dereferenceable(16) %this) #5 align 2 {
entry:
  %this.addr = alloca ptr, align 8
  store ptr %this, ptr %this.addr, align 8
  %this1 = load ptr, ptr %this.addr, align 8
  %call = call noundef ptr @_ZNKSt9_Any_data9_M_accessEv(ptr noundef nonnull align 8 dereferenceable(16) %this1) #3
  ret ptr %call
}

; Function Attrs: mustprogress uwtable
define internal noundef zeroext i1 @"_ZSt10__invoke_rIbRZN6google8protobuf4util18MessageDifferencer25MatchRepeatedFieldIndicesERKNS1_7MessageES6_iPKNS1_15FieldDescriptorEPKNS3_16MapKeyComparatorERKSt6vectorINS3_13SpecificFieldESaISE_EEPSD_IiSaIiEESL_E3$_0JiiEENSt9enable_ifIX16is_invocable_r_vIT_T0_DpT1_EESP_E4typeEOSQ_DpOSR_"(ptr noundef nonnull align 8 dereferenceable(56) %__fn, ptr noundef nonnull align 4 dereferenceable(4) %__args, ptr noundef nonnull align 4 dereferenceable(4) %__args1) #4 {
entry:
  %__fn.addr = alloca ptr, align 8
  %__args.addr = alloca ptr, align 8
  %__args.addr2 = alloca ptr, align 8
  store ptr %__fn, ptr %__fn.addr, align 8
  store ptr %__args, ptr %__args.addr, align 8
  store ptr %__args1, ptr %__args.addr2, align 8
  %0 = load ptr, ptr %__fn.addr, align 8
  %1 = load ptr, ptr %__args.addr, align 8
  %2 = load ptr, ptr %__args.addr2, align 8
  %call = call noundef zeroext i1 @"_ZSt13__invoke_implIbRZN6google8protobuf4util18MessageDifferencer25MatchRepeatedFieldIndicesERKNS1_7MessageES6_iPKNS1_15FieldDescriptorEPKNS3_16MapKeyComparatorERKSt6vectorINS3_13SpecificFieldESaISE_EEPSD_IiSaIiEESL_E3$_0JiiEET_St14__invoke_otherOT0_DpOT1_"(ptr noundef nonnull align 8 dereferenceable(56) %0, ptr noundef nonnull align 4 dereferenceable(4) %1, ptr noundef nonnull align 4 dereferenceable(4) %2)
  ret i1 %call
}

; Function Attrs: mustprogress nounwind uwtable
define internal noundef ptr @"_ZNSt14_Function_base13_Base_managerIZN6google8protobuf4util18MessageDifferencer25MatchRepeatedFieldIndicesERKNS2_7MessageES7_iPKNS2_15FieldDescriptorEPKNS4_16MapKeyComparatorERKSt6vectorINS4_13SpecificFieldESaISF_EEPSE_IiSaIiEESM_E3$_0E14_M_get_pointerERKSt9_Any_data"(ptr noundef nonnull align 8 dereferenceable(16) %__source) #5 align 2 {
entry:
  %__source.addr = alloca ptr, align 8
  store ptr %__source, ptr %__source.addr, align 8
  %0 = load ptr, ptr %__source.addr, align 8
  %call = call noundef nonnull align 8 dereferenceable(8) ptr @"_ZNKSt9_Any_data9_M_accessIPZN6google8protobuf4util18MessageDifferencer25MatchRepeatedFieldIndicesERKNS2_7MessageES7_iPKNS2_15FieldDescriptorEPKNS4_16MapKeyComparatorERKSt6vectorINS4_13SpecificFieldESaISF_EEPSE_IiSaIiEESM_E3$_0EERKT_v"(ptr noundef nonnull align 8 dereferenceable(16) %0) #3
  %1 = load ptr, ptr %call, align 8
  ret ptr %1
}

; Function Attrs: mustprogress uwtable
define internal noundef zeroext i1 @"_ZNSt17_Function_handlerIFbiiEZN6google8protobuf4util18MessageDifferencer25MatchRepeatedFieldIndicesERKNS2_7MessageES7_iPKNS2_15FieldDescriptorEPKNS4_16MapKeyComparatorERKSt6vectorINS4_13SpecificFieldESaISF_EEPSE_IiSaIiEESM_E3$_0E9_M_invokeERKSt9_Any_dataOiSS_"(ptr noundef nonnull align 8 dereferenceable(16) %__functor, ptr noundef nonnull align 4 dereferenceable(4) %__args, ptr noundef nonnull align 4 dereferenceable(4) %__args1) #4 align 2 {
entry:
  %__functor.addr = alloca ptr, align 8
  %__args.addr = alloca ptr, align 8
  %__args.addr2 = alloca ptr, align 8
  store ptr %__functor, ptr %__functor.addr, align 8
  store ptr %__args, ptr %__args.addr, align 8
  store ptr %__args1, ptr %__args.addr2, align 8
  %0 = load ptr, ptr %__functor.addr, align 8
  %call = call noundef ptr @"_ZNSt14_Function_base13_Base_managerIZN6google8protobuf4util18MessageDifferencer25MatchRepeatedFieldIndicesERKNS2_7MessageES7_iPKNS2_15FieldDescriptorEPKNS4_16MapKeyComparatorERKSt6vectorINS4_13SpecificFieldESaISF_EEPSE_IiSaIiEESM_E3$_0E14_M_get_pointerERKSt9_Any_data"(ptr noundef nonnull align 8 dereferenceable(16) %0) #3
  %1 = load ptr, ptr %__args.addr, align 8
  %2 = load ptr, ptr %__args.addr2, align 8
  %call3 = call noundef zeroext i1 @"_ZSt10__invoke_rIbRZN6google8protobuf4util18MessageDifferencer25MatchRepeatedFieldIndicesERKNS1_7MessageES6_iPKNS1_15FieldDescriptorEPKNS3_16MapKeyComparatorERKSt6vectorINS3_13SpecificFieldESaISE_EEPSD_IiSaIiEESL_E3$_0JiiEENSt9enable_ifIX16is_invocable_r_vIT_T0_DpT1_EESP_E4typeEOSQ_DpOSR_"(ptr noundef nonnull align 8 dereferenceable(56) %call, ptr noundef nonnull align 4 dereferenceable(4) %1, ptr noundef nonnull align 4 dereferenceable(4) %2)
  ret i1 %call3
}