; Function Attrs: mustprogress uwtable
define internal noundef zeroext i1 @"_ZNSt17_Function_handlerIFbiiEZN6google8protobuf4util18MessageDifferencer25MatchRepeatedFieldIndicesERKNS2_7MessageES7_iPKNS2_15FieldDescriptorEPKNS4_16MapKeyComparatorERKSt6vectorINS4_13SpecificFieldESaISF_EEPSE_IiSaIiEESM_E3$_0E9_M_invokeERKSt9_Any_dataOiSS_"(ptr nocapture noundef nonnull readonly align 8 dereferenceable(16) %__functor, ptr nocapture noundef nonnull readonly align 4 dereferenceable(4) %__args, ptr nocapture noundef nonnull readonly align 4 dereferenceable(4) %__args1) #3 align 2 {
entry:
  %__functor.val = load ptr, ptr %__functor, align 8
  %__args.val = load i32, ptr %__args, align 4
  %__args1.val = load i32, ptr %__args1, align 4
  %0 = load ptr, ptr %__functor.val, align 8
  %1 = getelementptr inbounds i8, ptr %__functor.val, i64 8
  %2 = load ptr, ptr %1, align 8
  %3 = load ptr, ptr %2, align 8
  %4 = getelementptr inbounds i8, ptr %__functor.val, i64 16
  %5 = load ptr, ptr %4, align 8
  %6 = load ptr, ptr %5, align 8
  %7 = getelementptr inbounds i8, ptr %__functor.val, i64 24
  %8 = load ptr, ptr %7, align 8
  %9 = getelementptr inbounds i8, ptr %__functor.val, i64 32
  %10 = load ptr, ptr %9, align 8
  %11 = getelementptr inbounds i8, ptr %__functor.val, i64 40
  %12 = load ptr, ptr %11, align 8
  %13 = load i32, ptr %12, align 4
  %14 = getelementptr inbounds i8, ptr %__functor.val, i64 48
  %15 = load ptr, ptr %14, align 8
  %call.i.i.i = tail call noundef zeroext i1 @_ZN6google8protobuf4util18MessageDifferencer7IsMatchEPKNS0_15FieldDescriptorEPKNS2_16MapKeyComparatorEPKNS0_7MessageESB_iRKSt6vectorINS2_13SpecificFieldESaISD_EEPNS2_8ReporterEii(ptr noundef nonnull align 8 dereferenceable(432) %0, ptr noundef %3, ptr noundef %6, ptr noundef %8, ptr noundef %10, i32 noundef %13, ptr noundef nonnull align 8 dereferenceable(24) %15, ptr noundef null, i32 noundef %__args.val, i32 noundef %__args1.val)
  ret i1 %call.i.i.i
}